target datalayout = "e-m:e-p270:32:32-p271:32:32-p272:64:64-i64:64-i128:128-f80:128-n8:16:32:64-S128"
target triple = "x86_64-unknown-linux-gnu"

%struct.config = type { ptr, %struct.cliConnInfo, ptr, i32, %struct.cliSSLconfig, i32, i32, i32, i32, i32, i32, i32, i64, i32, i32, i32, i32, i32, i32, i64, i64, ptr, ptr, i32, i32, i32, i32, ptr, ptr, i32, i32, i32, ptr, i32, i32, ptr, ptr, ptr, ptr, i32, i32, i32, i32, %union.pthread_mutex_t, %union.pthread_mutex_t, i32 }
%struct.cliConnInfo = type { ptr, i32, i32, ptr, ptr }
%struct.cliSSLconfig = type { ptr, ptr, ptr, i32, ptr, ptr, ptr, ptr }
%union.pthread_mutex_t = type { %struct.__pthread_mutex_s }
%struct.__pthread_mutex_s = type { i32, i32, i32, i32, i32, i16, i16, %struct.__pthread_internal_list }
%struct.__pthread_internal_list = type { ptr, ptr }

@config = internal global %struct.config zeroinitializer, align 8

; Function Attrs: nounwind uwtable
define dso_local i32 @test_is_selected(ptr noundef %name) #0 {
entry:
  %retval = alloca i32, align 4
  %name.addr = alloca ptr, align 8
  %buf = alloca [256 x i8], align 16
  %l = alloca i32, align 4
  store ptr %name, ptr %name.addr, align 8
  %0 = load ptr, ptr %name.addr, align 8
  %call = call i64 @strlen(ptr noundef %0) #10
  %conv = trunc i64 %call to i32
  store i32 %conv, ptr %l, align 4
  %1 = load ptr, ptr getelementptr inbounds (%struct.config, ptr @config, i32 0, i32 28), align 8
  %cmp = icmp eq ptr %1, null
  br i1 %cmp, label %if.then, label %if.end

if.then:                                          ; preds = %entry
  store i32 1, ptr %retval, align 4
  br label %return

if.end:                                           ; preds = %entry
  %arrayidx = getelementptr inbounds [256 x i8], ptr %buf, i64 0, i64 0
  store i8 44, ptr %arrayidx, align 16
  %arraydecay = getelementptr inbounds [256 x i8], ptr %buf, i64 0, i64 0
  %add.ptr = getelementptr inbounds i8, ptr %arraydecay, i64 1
  %2 = load ptr, ptr %name.addr, align 8
  %3 = load i32, ptr %l, align 4
  %conv2 = sext i32 %3 to i64
  call void @llvm.memcpy.p0.p0.i64(ptr align 1 %add.ptr, ptr align 1 %2, i64 %conv2, i1 false)
  %4 = load i32, ptr %l, align 4
  %add = add nsw i32 %4, 1
  %idxprom = sext i32 %add to i64
  %arrayidx3 = getelementptr inbounds [256 x i8], ptr %buf, i64 0, i64 %idxprom
  store i8 44, ptr %arrayidx3, align 1
  %5 = load i32, ptr %l, align 4
  %add4 = add nsw i32 %5, 2
  %idxprom5 = sext i32 %add4 to i64
  %arrayidx6 = getelementptr inbounds [256 x i8], ptr %buf, i64 0, i64 %idxprom5
  store i8 0, ptr %arrayidx6, align 1
  %6 = load ptr, ptr getelementptr inbounds (%struct.config, ptr @config, i32 0, i32 28), align 8
  %arraydecay7 = getelementptr inbounds [256 x i8], ptr %buf, i64 0, i64 0
  %call8 = call ptr @strstr(ptr noundef %6, ptr noundef %arraydecay7) #10
  %cmp9 = icmp ne ptr %call8, null
  %conv10 = zext i1 %cmp9 to i32
  store i32 %conv10, ptr %retval, align 4
  br label %return

return:                                           ; preds = %if.end, %if.then
  %7 = load i32, ptr %retval, align 4
  ret i32 %7
}