; Function Attrs: mustprogress nofree nounwind willreturn memory(read, argmem: readwrite, inaccessiblemem: none) uwtable
define dso_local i32 @test_is_selected(ptr nocapture noundef readonly %name) local_unnamed_addr #8 {
entry:
  %buf = alloca [256 x i8], align 16
  %0 = load ptr, ptr getelementptr inbounds (%struct.config, ptr @config, i64 0, i32 28), align 8
  %cmp = icmp eq ptr %0, null
  br i1 %cmp, label %return, label %if.end

if.end:                                           ; preds = %entry
  %call = tail call i64 @strlen(ptr noundef nonnull dereferenceable(1) %name) #21
  store i8 44, ptr %buf, align 16
  %add.ptr = getelementptr inbounds i8, ptr %buf, i64 1
  %sext = shl i64 %call, 32
  %conv2 = ashr exact i64 %sext, 32
  call void @llvm.memcpy.p0.p0.i64(ptr nonnull align 1 %add.ptr, ptr align 1 %name, i64 %conv2, i1 false)
  %sext4 = add i64 %sext, 4294967296
  %idxprom = ashr exact i64 %sext4, 32
  %arrayidx3 = getelementptr inbounds [256 x i8], ptr %buf, i64 0, i64 %idxprom
  store i8 44, ptr %arrayidx3, align 1
  %sext5 = add i64 %sext, 8589934592
  %idxprom5 = ashr exact i64 %sext5, 32
  %arrayidx6 = getelementptr inbounds [256 x i8], ptr %buf, i64 0, i64 %idxprom5
  store i8 0, ptr %arrayidx6, align 1
  %call8 = call ptr @strstr(ptr noundef nonnull dereferenceable(1) %0, ptr noundef nonnull dereferenceable(1) %buf) #21
  %cmp9 = icmp ne ptr %call8, null
  %conv10 = zext i1 %cmp9 to i32
  br label %return

return:                                           ; preds = %entry, %if.end
  %retval.0 = phi i32 [ %conv10, %if.end ], [ 1, %entry ]
  ret i32 %retval.0
}